(lp0
S'A2/0.5'
p1
aS'A3/0.0'
p2
aS'A3/0.5'
p3
aS'A3/0.75'
p4
aS'A3/1/3'
p5
aS'A3/2.0'
p6
aS'A3/2/3'
p7
aS'A3/3.0'
p8
aS'A4/0.0'
p9
aS'A4/0.25'
p10
aS'A4/0.5'
p11
aS'A4/1.0'
p12
aS'A4/1/3'
p13
aS'A4/2.0'
p14
aS'A5/0.0'
p15
aS'A5/0.25'
p16
aS'A5/0.5'
p17
aS'A5/0.75'
p18
aS'A5/2/3'
p19
aS'A6/0.25'
p20
aS'B-3/0.25'
p21
aS'B-3/0.5'
p22
aS'B-3/1.0'
p23
aS'B-3/1.5'
p24
aS'B-3/15.75'
p25
aS'B-3/2.5'
p26
aS'B-3/2/3'
p27
aS'B-3/7.75'
p28
aS'B-4/0.0'
p29
aS'B-4/0.5'
p30
aS'B-4/1.0'
p31
aS'B-4/1.25'
p32
aS'B-4/1.5'
p33
aS'B-4/2.0'
p34
aS'B-4/2.5'
p35
aS'B-4/4/3'
p36
aS'B-4/6.0'
p37
aS'B-5/0.0'
p38
aS'B-5/0.25'
p39
aS'B-5/0.5'
p40
aS'B-5/2/3'
p41
aS'B-6/0.5'
p42
aS'B-6/1.0'
p43
aS'B-6/1.5'
p44
aS'B-6/1/3'
p45
aS'B-6/2/3'
p46
aS'B2/0.5'
p47
aS'B3/0.0'
p48
aS'B3/0.5'
p49
aS'B3/14/3'
p50
aS'B3/2.0'
p51
aS'B4/0.0'
p52
aS'B4/0.25'
p53
aS'B4/0.5'
p54
aS'B4/1.0'
p55
aS'B4/2.0'
p56
aS'B4/5/3'
p57
aS'B5/0.0'
p58
aS'B5/0.25'
p59
aS'B5/0.5'
p60
aS'B5/0.75'
p61
aS'C#3/1.75'
p62
aS'C#4/0.5'
p63
aS'C#4/0.75'
p64
aS'C#4/1.0'
p65
aS'C#4/2.0'
p66
aS'C#5/1.0'
p67
aS'C#5/2.0'
p68
aS'C#6/0.0'
p69
aS'C3/0.0'
p70
aS'C3/0.5'
p71
aS'C3/1.75'
p72
aS'C4/0.25'
p73
aS'C4/0.5'
p74
aS'C4/0.75'
p75
aS'C4/1.0'
p76
aS'C4/2.0'
p77
aS'C4/2/3'
p78
aS'C4/4.0'
p79
aS'C4/6.0'
p80
aS'C5/0.0'
p81
aS'C5/0.25'
p82
aS'C5/0.5'
p83
aS'C5/1.0'
p84
aS'C5/2/3'
p85
aS'C5/4/3'
p86
aS'C6/0.0'
p87
aS'C6/0.25'
p88
aS'C6/0.5'
p89
aS'C6/1.0'
p90
aS'C6/1/3'
p91
aS'C7/0.5'
p92
aS'C7/1.5'
p93
aS'D3/0.5'
p94
aS'D4/0.0'
p95
aS'D4/0.25'
p96
aS'D4/0.5'
p97
aS'D4/0.75'
p98
aS'D4/1.75'
p99
aS'D4/2.0'
p100
aS'D5/0.0'
p101
aS'D5/0.25'
p102
aS'D5/0.5'
p103
aS'D5/1.0'
p104
aS'D5/1.75'
p105
aS'D5/2.0'
p106
aS'D6/0.0'
p107
aS'D6/0.25'
p108
aS'D6/0.5'
p109
aS'D6/0.75'
p110
aS'D6/1.5'
p111
aS'D6/1/3'
p112
aS'E-3/2.5'
p113
aS'E-4/0.5'
p114
aS'E-4/1.0'
p115
aS'E-4/2.0'
p116
aS'E-4/2.75'
p117
aS'E-4/2/3'
p118
aS'E-4/3.0'
p119
aS'E-4/4/3'
p120
aS'E-5/0.0'
p121
aS'E-5/0.25'
p122
aS'E-5/0.5'
p123
aS'E-5/1.0'
p124
aS'E-5/1.5'
p125
aS'E-5/2.75'
p126
aS'E-5/4/3'
p127
aS'E-6/0.0'
p128
aS'E-6/0.5'
p129
aS'E-6/1.0'
p130
aS'E2/0.0'
p131
aS'E3/0.5'
p132
aS'E3/8/3'
p133
aS'E4/0.0'
p134
aS'E4/0.25'
p135
aS'E4/0.5'
p136
aS'E4/0.75'
p137
aS'E4/1.0'
p138
aS'E4/1.25'
p139
aS'E4/2.0'
p140
aS'E5/0.0'
p141
aS'E5/0.25'
p142
aS'E5/0.5'
p143
aS'E5/0.75'
p144
aS'E5/1.0'
p145
aS'E5/1.25'
p146
aS'E6/0.0'
p147
aS'E6/0.25'
p148
aS'E6/0.5'
p149
aS'E6/0.75'
p150
aS'E6/1.0'
p151
aS'E6/2/3'
p152
aS'F#3/0.5'
p153
aS'F#3/2.0'
p154
aS'F#3/3.0'
p155
aS'F#4/0.0'
p156
aS'F#4/3.0'
p157
aS'F#5/0.0'
p158
aS'F3/0.5'
p159
aS'F3/0.75'
p160
aS'F3/1.0'
p161
aS'F3/1.75'
p162
aS'F3/2.0'
p163
aS'F3/2/3'
p164
aS'F3/4.0'
p165
aS'F4/0.0'
p166
aS'F4/0.25'
p167
aS'F4/0.5'
p168
aS'F4/1.0'
p169
aS'F4/1.5'
p170
aS'F4/3.25'
p171
aS'F4/5/3'
p172
aS'F4/8.0'
p173
aS'F5/0.0'
p174
aS'F5/0.25'
p175
aS'F5/0.5'
p176
aS'F5/1.0'
p177
aS'F5/4/3'
p178
aS'F6/0.25'
p179
aS'F6/0.5'
p180
aS'F6/1.0'
p181
aS'F6/1.5'
p182
aS'G#4/0.666666666667'
p183
aS'G#4/2.0'
p184
aS'G#5/0.0'
p185
aS'G#5/0.25'
p186
aS'G#5/0.5'
p187
aS'G#5/1.0'
p188
aS'G#6/0.5'
p189
aS'G#6/1.5'
p190
aS'G3/0.0'
p191
aS'G3/0.25'
p192
aS'G3/0.5'
p193
aS'G3/0.75'
p194
aS'G3/1.0'
p195
aS'G3/1.5'
p196
aS'G3/2.0'
p197
aS'G4/0.0'
p198
aS'G4/0.25'
p199
aS'G4/0.5'
p200
aS'G4/0.75'
p201
aS'G4/1.0'
p202
aS'G4/4.0'
p203
aS'G5/0.0'
p204
aS'G5/0.25'
p205
aS'G5/0.5'
p206
aS'G5/0.75'
p207
aS'G5/1.0'
p208
aS'G6/0.0'
p209
aS'G6/0.5'
p210
aS'G6/2/3'
p211
aS'rest/156.0'
p212
aS'rest/24.25'
p213
a.